; Function Attrs: mustprogress nounwind uwtable
define dso_local noundef zeroext i1 @_ZN5clang20CoroutineStmtBuilder15makePromiseStmtEv(ptr nocapture noundef nonnull align 8 dereferenceable(208) %0) local_unnamed_addr #0 align 2 {
  %2 = getelementptr inbounds nuw i8, ptr %0, i64 112
  %3 = load ptr, ptr %2, align 8
  %4 = getelementptr inbounds nuw i8, ptr %0, i64 128
  %5 = load ptr, ptr %4, align 8
  %6 = getelementptr inbounds nuw i8, ptr %5, i64 184
  %7 = load ptr, ptr %6, align 8
  %8 = tail call ptr @_ZN5clang4Sema22ConvertDeclToDeclGroupEPNS_4DeclES2_(ptr noundef nonnull align 8 dereferenceable(17560) %3, ptr noundef %7, ptr noundef null) #17
  %9 = getelementptr inbounds nuw i8, ptr %0, i64 140
  %.sroa.01.0.copyload = load i32, ptr %9, align 4
  %10 = tail call i64 @_ZN5clang4Sema13ActOnDeclStmtENS_9OpaquePtrINS_12DeclGroupRefEEENS_14SourceLocationES4_(ptr noundef nonnull align 8 dereferenceable(17560) %3, ptr %8, i32 %.sroa.01.0.copyload, i32 %.sroa.01.0.copyload) #17
  %11 = icmp ne i64 %10, 1
  br i1 %11, label %12, label %16

12:                                               ; preds = %1
  %13 = and i64 %10, -2
  %14 = inttoptr i64 %13 to ptr
  %15 = getelementptr inbounds nuw i8, ptr %0, i64 8
  store ptr %14, ptr %15, align 8
  br label %16

16:                                               ; preds = %1, %12
  ret i1 %11
}